target datalayout = "e-m:e-p270:32:32-p271:32:32-p272:64:64-i64:64-i128:128-f80:128-n8:16:32:64-S128"
target triple = "x86_64-pc-linux-gnu"

%"class.std::initializer_list" = type { ptr, i64 }
%"struct.__gnu_cxx::__ops::_Iter_less_iter" = type { i8 }

; Function Attrs: mustprogress nounwind uwtable
define linkonce_odr hidden noundef zeroext i1 @_ZNK9__gnu_cxx5__ops15_Iter_less_iterclIPKiS4_EEbT_T0_(ptr noundef nonnull align 1 dereferenceable(1) %0, ptr noundef %1, ptr noundef %2) #5 comdat align 2 {
  %4 = alloca ptr, align 8
  %5 = alloca ptr, align 8
  %6 = alloca ptr, align 8
  store ptr %0, ptr %4, align 8
  store ptr %1, ptr %5, align 8
  store ptr %2, ptr %6, align 8
  %7 = load ptr, ptr %5, align 8
  %8 = load i32, ptr %7, align 4
  %9 = load ptr, ptr %6, align 8
  %10 = load i32, ptr %9, align 4
  %11 = icmp slt i32 %8, %10
  ret i1 %11
}

; Function Attrs: mustprogress nounwind uwtable
define linkonce_odr hidden noundef i64 @_ZNKSt16initializer_listIiE4sizeEv(ptr noundef nonnull align 8 dereferenceable(16) %0) #5 comdat align 2 {
  %2 = alloca ptr, align 8
  store ptr %0, ptr %2, align 8
  %3 = load ptr, ptr %2, align 8
  %4 = getelementptr inbounds %"class.std::initializer_list", ptr %3, i32 0, i32 1
  %5 = load i64, ptr %4, align 8
  ret i64 %5
}

; Function Attrs: mustprogress nounwind uwtable
define linkonce_odr hidden noundef ptr @_ZSt13__max_elementIPKiN9__gnu_cxx5__ops15_Iter_less_iterEET_S5_S5_T0_(ptr noundef %0, ptr noundef %1) #5 comdat {
  %3 = alloca ptr, align 8
  %4 = alloca %"struct.__gnu_cxx::__ops::_Iter_less_iter", align 1
  %5 = alloca ptr, align 8
  %6 = alloca ptr, align 8
  %7 = alloca ptr, align 8
  store ptr %0, ptr %5, align 8
  store ptr %1, ptr %6, align 8
  %8 = load ptr, ptr %5, align 8
  %9 = load ptr, ptr %6, align 8
  %10 = icmp eq ptr %8, %9
  br i1 %10, label %11, label %13

11:                                               ; preds = %2
  %12 = load ptr, ptr %5, align 8
  store ptr %12, ptr %3, align 8
  br label %29

13:                                               ; preds = %2
  %14 = load ptr, ptr %5, align 8
  store ptr %14, ptr %7, align 8
  br label %15

15:                                               ; preds = %26, %13
  %16 = load ptr, ptr %5, align 8
  %17 = getelementptr inbounds i32, ptr %16, i32 1
  store ptr %17, ptr %5, align 8
  %18 = load ptr, ptr %6, align 8
  %19 = icmp ne ptr %17, %18
  br i1 %19, label %20, label %27

20:                                               ; preds = %15
  %21 = load ptr, ptr %7, align 8
  %22 = load ptr, ptr %5, align 8
  %23 = call noundef zeroext i1 @_ZNK9__gnu_cxx5__ops15_Iter_less_iterclIPKiS4_EEbT_T0_(ptr noundef nonnull align 1 dereferenceable(1) %4, ptr noundef %21, ptr noundef %22)
  br i1 %23, label %24, label %26

24:                                               ; preds = %20
  %25 = load ptr, ptr %5, align 8
  store ptr %25, ptr %7, align 8
  br label %26

26:                                               ; preds = %24, %20
  br label %15, !llvm.loop !13

27:                                               ; preds = %15
  %28 = load ptr, ptr %7, align 8
  store ptr %28, ptr %3, align 8
  br label %29

29:                                               ; preds = %27, %11
  %30 = load ptr, ptr %3, align 8
  ret ptr %30
}

; Function Attrs: mustprogress uwtable
define linkonce_odr hidden noundef ptr @_ZSt13__min_elementIPKiN9__gnu_cxx5__ops15_Iter_less_iterEET_S5_S5_T0_(ptr noundef %0, ptr noundef %1) #0 comdat {
  %3 = alloca ptr, align 8
  %4 = alloca %"struct.__gnu_cxx::__ops::_Iter_less_iter", align 1
  %5 = alloca ptr, align 8
  %6 = alloca ptr, align 8
  %7 = alloca ptr, align 8
  store ptr %0, ptr %5, align 8
  store ptr %1, ptr %6, align 8
  %8 = load ptr, ptr %5, align 8
  %9 = load ptr, ptr %6, align 8
  %10 = icmp eq ptr %8, %9
  br i1 %10, label %11, label %13

11:                                               ; preds = %2
  %12 = load ptr, ptr %5, align 8
  store ptr %12, ptr %3, align 8
  br label %29

13:                                               ; preds = %2
  %14 = load ptr, ptr %5, align 8
  store ptr %14, ptr %7, align 8
  br label %15

15:                                               ; preds = %26, %13
  %16 = load ptr, ptr %5, align 8
  %17 = getelementptr inbounds i32, ptr %16, i32 1
  store ptr %17, ptr %5, align 8
  %18 = load ptr, ptr %6, align 8
  %19 = icmp ne ptr %17, %18
  br i1 %19, label %20, label %27

20:                                               ; preds = %15
  %21 = load ptr, ptr %5, align 8
  %22 = load ptr, ptr %7, align 8
  %23 = call noundef zeroext i1 @_ZNK9__gnu_cxx5__ops15_Iter_less_iterclIPKiS4_EEbT_T0_(ptr noundef nonnull align 1 dereferenceable(1) %4, ptr noundef %21, ptr noundef %22)
  br i1 %23, label %24, label %26

24:                                               ; preds = %20
  %25 = load ptr, ptr %5, align 8
  store ptr %25, ptr %7, align 8
  br label %26

26:                                               ; preds = %24, %20
  br label %15, !llvm.loop !12

27:                                               ; preds = %15
  %28 = load ptr, ptr %7, align 8
  store ptr %28, ptr %3, align 8
  br label %29

29:                                               ; preds = %27, %11
  %30 = load ptr, ptr %3, align 8
  ret ptr %30
}

; Function Attrs: mustprogress nounwind uwtable
define linkonce_odr hidden void @_ZN9__gnu_cxx5__ops16__iter_less_iterEv() #5 comdat {
  ret void
}

; Function Attrs: mustprogress nounwind uwtable
define linkonce_odr hidden noundef ptr @_ZNKSt16initializer_listIiE3endEv(ptr noundef nonnull align 8 dereferenceable(16) %0) #5 comdat align 2 {
  %2 = alloca ptr, align 8
  store ptr %0, ptr %2, align 8
  %3 = load ptr, ptr %2, align 8
  %4 = call noundef ptr @_ZNKSt16initializer_listIiE5beginEv(ptr noundef nonnull align 8 dereferenceable(16) %3) #8
  %5 = call noundef i64 @_ZNKSt16initializer_listIiE4sizeEv(ptr noundef nonnull align 8 dereferenceable(16) %3) #8
  %6 = getelementptr inbounds i32, ptr %4, i64 %5
  ret ptr %6
}

; Function Attrs: mustprogress nounwind uwtable
define linkonce_odr hidden noundef ptr @_ZNKSt16initializer_listIiE5beginEv(ptr noundef nonnull align 8 dereferenceable(16) %0) #5 comdat align 2 {
  %2 = alloca ptr, align 8
  store ptr %0, ptr %2, align 8
  %3 = load ptr, ptr %2, align 8
  %4 = getelementptr inbounds %"class.std::initializer_list", ptr %3, i32 0, i32 0
  %5 = load ptr, ptr %4, align 8
  ret ptr %5
}

; Function Attrs: mustprogress nounwind uwtable
define internal noundef zeroext i8 @_ZN2cvL13saturate_castIhEET_i(i32 noundef %0) #5 {
  %2 = alloca i32, align 4
  store i32 %0, ptr %2, align 4
  %3 = load i32, ptr %2, align 4
  %4 = icmp ule i32 %3, 255
  br i1 %4, label %5, label %7

5:                                                ; preds = %1
  %6 = load i32, ptr %2, align 4
  br label %11

7:                                                ; preds = %1
  %8 = load i32, ptr %2, align 4
  %9 = icmp sgt i32 %8, 0
  %10 = select i1 %9, i32 255, i32 0
  br label %11

11:                                               ; preds = %7, %5
  %12 = phi i32 [ %6, %5 ], [ %10, %7 ]
  %13 = trunc i32 %12 to i8
  ret i8 %13
}

; Function Attrs: mustprogress uwtable
define linkonce_odr noundef i32 @_ZSt3maxIiET_St16initializer_listIS0_E(ptr %0, i64 %1) #0 comdat {
  %3 = alloca %"class.std::initializer_list", align 8
  %4 = getelementptr inbounds { ptr, i64 }, ptr %3, i32 0, i32 0
  store ptr %0, ptr %4, align 8
  %5 = getelementptr inbounds { ptr, i64 }, ptr %3, i32 0, i32 1
  store i64 %1, ptr %5, align 8
  %6 = call noundef ptr @_ZNKSt16initializer_listIiE5beginEv(ptr noundef nonnull align 8 dereferenceable(16) %3) #8
  %7 = call noundef ptr @_ZNKSt16initializer_listIiE3endEv(ptr noundef nonnull align 8 dereferenceable(16) %3) #8
  call void @_ZN9__gnu_cxx5__ops16__iter_less_iterEv()
  %8 = call noundef ptr @_ZSt13__max_elementIPKiN9__gnu_cxx5__ops15_Iter_less_iterEET_S5_S5_T0_(ptr noundef %6, ptr noundef %7)
  %9 = load i32, ptr %8, align 4
  ret i32 %9
}

; Function Attrs: mustprogress uwtable
define linkonce_odr noundef i32 @_ZSt3minIiET_St16initializer_listIS0_E(ptr %0, i64 %1) #0 comdat {
  %3 = alloca %"class.std::initializer_list", align 8
  %4 = getelementptr inbounds { ptr, i64 }, ptr %3, i32 0, i32 0
  store ptr %0, ptr %4, align 8
  %5 = getelementptr inbounds { ptr, i64 }, ptr %3, i32 0, i32 1
  store i64 %1, ptr %5, align 8
  %6 = call noundef ptr @_ZNKSt16initializer_listIiE5beginEv(ptr noundef nonnull align 8 dereferenceable(16) %3) #8
  %7 = call noundef ptr @_ZNKSt16initializer_listIiE3endEv(ptr noundef nonnull align 8 dereferenceable(16) %3) #8
  call void @_ZN9__gnu_cxx5__ops16__iter_less_iterEv()
  %8 = call noundef ptr @_ZSt13__min_elementIPKiN9__gnu_cxx5__ops15_Iter_less_iterEET_S5_S5_T0_(ptr noundef %6, ptr noundef %7)
  %9 = load i32, ptr %8, align 4
  ret i32 %9
}

; Function Attrs: mustprogress uwtable
define hidden void @_ZN2cv4gapi5fluid12cpu_baseline16run_rgb2hsv_implEPhPKhPKiS7_i(ptr noundef %0, ptr noundef %1, ptr noundef %2, ptr noundef %3, i32 noundef %4) #0 {
  %6 = alloca ptr, align 8
  %7 = alloca ptr, align 8
  %8 = alloca ptr, align 8
  %9 = alloca ptr, align 8
  %10 = alloca i32, align 4
  %11 = alloca i32, align 4
  %12 = alloca i32, align 4
  %13 = alloca i32, align 4
  %14 = alloca i32, align 4
  %15 = alloca i32, align 4
  %16 = alloca i32, align 4
  %17 = alloca i32, align 4
  %18 = alloca i32, align 4
  %19 = alloca i32, align 4
  %20 = alloca i32, align 4
  %21 = alloca %"class.std::initializer_list", align 8
  %22 = alloca [3 x i32], align 4
  %23 = alloca %"class.std::initializer_list", align 8
  %24 = alloca [3 x i32], align 4
  %25 = alloca i32, align 4
  %26 = alloca i32, align 4
  %27 = alloca i8, align 1
  store ptr %0, ptr %6, align 8
  store ptr %1, ptr %7, align 8
  store ptr %2, ptr %8, align 8
  store ptr %3, ptr %9, align 8
  store i32 %4, ptr %10, align 4
  store i32 12, ptr %11, align 4
  store i32 180, ptr %12, align 4
  store i32 0, ptr %13, align 4
  br label %28

28:                                               ; preds = %169, %5
  %29 = load i32, ptr %13, align 4
  %30 = load i32, ptr %10, align 4
  %31 = icmp slt i32 %29, %30
  br i1 %31, label %32, label %172

32:                                               ; preds = %28
  %33 = load ptr, ptr %7, align 8
  %34 = load i32, ptr %13, align 4
  %35 = mul nsw i32 %34, 3
  %36 = sext i32 %35 to i64
  %37 = getelementptr inbounds i8, ptr %33, i64 %36
  %38 = load i8, ptr %37, align 1
  %39 = zext i8 %38 to i32
  store i32 %39, ptr %14, align 4
  %40 = load ptr, ptr %7, align 8
  %41 = load i32, ptr %13, align 4
  %42 = mul nsw i32 %41, 3
  %43 = add nsw i32 %42, 1
  %44 = sext i32 %43 to i64
  %45 = getelementptr inbounds i8, ptr %40, i64 %44
  %46 = load i8, ptr %45, align 1
  %47 = zext i8 %46 to i32
  store i32 %47, ptr %15, align 4
  %48 = load ptr, ptr %7, align 8
  %49 = load i32, ptr %13, align 4
  %50 = mul nsw i32 %49, 3
  %51 = add nsw i32 %50, 2
  %52 = sext i32 %51 to i64
  %53 = getelementptr inbounds i8, ptr %48, i64 %52
  %54 = load i8, ptr %53, align 1
  %55 = zext i8 %54 to i32
  store i32 %55, ptr %16, align 4
  %56 = load i32, ptr %16, align 4
  store i32 %56, ptr %19, align 4
  %57 = load i32, ptr %14, align 4
  store i32 %57, ptr %22, align 4
  %58 = getelementptr inbounds i32, ptr %22, i64 1
  %59 = load i32, ptr %15, align 4
  store i32 %59, ptr %58, align 4
  %60 = getelementptr inbounds i32, ptr %22, i64 2
  %61 = load i32, ptr %16, align 4
  store i32 %61, ptr %60, align 4
  %62 = getelementptr inbounds %"class.std::initializer_list", ptr %21, i32 0, i32 0
  store ptr %22, ptr %62, align 8
  %63 = getelementptr inbounds %"class.std::initializer_list", ptr %21, i32 0, i32 1
  store i64 3, ptr %63, align 8
  %64 = getelementptr inbounds { ptr, i64 }, ptr %21, i32 0, i32 0
  %65 = load ptr, ptr %64, align 8
  %66 = getelementptr inbounds { ptr, i64 }, ptr %21, i32 0, i32 1
  %67 = load i64, ptr %66, align 8
  %68 = call noundef i32 @_ZSt3minIiET_St16initializer_listIS0_E(ptr %65, i64 %67)
  store i32 %68, ptr %20, align 4
  %69 = load i32, ptr %14, align 4
  store i32 %69, ptr %24, align 4
  %70 = getelementptr inbounds i32, ptr %24, i64 1
  %71 = load i32, ptr %15, align 4
  store i32 %71, ptr %70, align 4
  %72 = getelementptr inbounds i32, ptr %24, i64 2
  %73 = load i32, ptr %16, align 4
  store i32 %73, ptr %72, align 4
  %74 = getelementptr inbounds %"class.std::initializer_list", ptr %23, i32 0, i32 0
  store ptr %24, ptr %74, align 8
  %75 = getelementptr inbounds %"class.std::initializer_list", ptr %23, i32 0, i32 1
  store i64 3, ptr %75, align 8
  %76 = getelementptr inbounds { ptr, i64 }, ptr %23, i32 0, i32 0
  %77 = load ptr, ptr %76, align 8
  %78 = getelementptr inbounds { ptr, i64 }, ptr %23, i32 0, i32 1
  %79 = load i64, ptr %78, align 8
  %80 = call noundef i32 @_ZSt3maxIiET_St16initializer_listIS0_E(ptr %77, i64 %79)
  store i32 %80, ptr %19, align 4
  %81 = load i32, ptr %19, align 4
  %82 = load i32, ptr %20, align 4
  %83 = sub nsw i32 %81, %82
  %84 = call noundef zeroext i8 @_ZN2cvL13saturate_castIhEET_i(i32 noundef %83)
  store i8 %84, ptr %27, align 1
  %85 = load i32, ptr %19, align 4
  %86 = load i32, ptr %14, align 4
  %87 = icmp eq i32 %85, %86
  %88 = select i1 %87, i32 -1, i32 0
  store i32 %88, ptr %25, align 4
  %89 = load i32, ptr %19, align 4
  %90 = load i32, ptr %15, align 4
  %91 = icmp eq i32 %89, %90
  %92 = select i1 %91, i32 -1, i32 0
  store i32 %92, ptr %26, align 4
  %93 = load i8, ptr %27, align 1
  %94 = zext i8 %93 to i32
  %95 = load ptr, ptr %8, align 8
  %96 = load i32, ptr %19, align 4
  %97 = sext i32 %96 to i64
  %98 = getelementptr inbounds i32, ptr %95, i64 %97
  %99 = load i32, ptr %98, align 4
  %100 = mul nsw i32 %94, %99
  %101 = add nsw i32 %100, 2048
  %102 = ashr i32 %101, 12
  store i32 %102, ptr %18, align 4
  %103 = load i32, ptr %25, align 4
  %104 = load i32, ptr %15, align 4
  %105 = load i32, ptr %16, align 4
  %106 = sub nsw i32 %104, %105
  %107 = and i32 %103, %106
  %108 = load i32, ptr %25, align 4
  %109 = xor i32 %108, -1
  %110 = load i32, ptr %26, align 4
  %111 = load i32, ptr %16, align 4
  %112 = load i32, ptr %14, align 4
  %113 = sub nsw i32 %111, %112
  %114 = load i8, ptr %27, align 1
  %115 = zext i8 %114 to i32
  %116 = mul nsw i32 2, %115
  %117 = add nsw i32 %113, %116
  %118 = and i32 %110, %117
  %119 = load i32, ptr %26, align 4
  %120 = xor i32 %119, -1
  %121 = load i32, ptr %14, align 4
  %122 = load i32, ptr %15, align 4
  %123 = sub nsw i32 %121, %122
  %124 = load i8, ptr %27, align 1
  %125 = zext i8 %124 to i32
  %126 = mul nsw i32 4, %125
  %127 = add nsw i32 %123, %126
  %128 = and i32 %120, %127
  %129 = add nsw i32 %118, %128
  %130 = and i32 %109, %129
  %131 = add nsw i32 %107, %130
  store i32 %131, ptr %17, align 4
  %132 = load i32, ptr %17, align 4
  %133 = load ptr, ptr %9, align 8
  %134 = load i8, ptr %27, align 1
  %135 = zext i8 %134 to i64
  %136 = getelementptr inbounds i32, ptr %133, i64 %135
  %137 = load i32, ptr %136, align 4
  %138 = mul nsw i32 %132, %137
  %139 = add nsw i32 %138, 2048
  %140 = ashr i32 %139, 12
  store i32 %140, ptr %17, align 4
  %141 = load i32, ptr %17, align 4
  %142 = icmp slt i32 %141, 0
  %143 = select i1 %142, i32 180, i32 0
  %144 = load i32, ptr %17, align 4
  %145 = add nsw i32 %144, %143
  store i32 %145, ptr %17, align 4
  %146 = load i32, ptr %17, align 4
  %147 = call noundef zeroext i8 @_ZN2cvL13saturate_castIhEET_i(i32 noundef %146)
  %148 = load ptr, ptr %6, align 8
  %149 = load i32, ptr %13, align 4
  %150 = mul nsw i32 %149, 3
  %151 = sext i32 %150 to i64
  %152 = getelementptr inbounds i8, ptr %148, i64 %151
  store i8 %147, ptr %152, align 1
  %153 = load i32, ptr %18, align 4
  %154 = trunc i32 %153 to i8
  %155 = load ptr, ptr %6, align 8
  %156 = load i32, ptr %13, align 4
  %157 = mul nsw i32 %156, 3
  %158 = add nsw i32 %157, 1
  %159 = sext i32 %158 to i64
  %160 = getelementptr inbounds i8, ptr %155, i64 %159
  store i8 %154, ptr %160, align 1
  %161 = load i32, ptr %19, align 4
  %162 = trunc i32 %161 to i8
  %163 = load ptr, ptr %6, align 8
  %164 = load i32, ptr %13, align 4
  %165 = mul nsw i32 %164, 3
  %166 = add nsw i32 %165, 2
  %167 = sext i32 %166 to i64
  %168 = getelementptr inbounds i8, ptr %163, i64 %167
  store i8 %162, ptr %168, align 1
  br label %169

169:                                              ; preds = %32
  %170 = load i32, ptr %13, align 4
  %171 = add nsw i32 %170, 1
  store i32 %171, ptr %13, align 4
  br label %28, !llvm.loop !6

172:                                              ; preds = %28
  ret void
}