; Function Attrs: mustprogress nofree norecurse nosync nounwind memory(argmem: readwrite) uwtable
define hidden void @_ZN2cv4gapi5fluid12cpu_baseline16run_rgb2hsv_implEPhPKhPKiS7_i(ptr nocapture noundef writeonly %0, ptr nocapture noundef readonly %1, ptr nocapture noundef readonly %2, ptr nocapture noundef readonly %3, i32 noundef %4) local_unnamed_addr #5 {
  %6 = alloca [3 x i32], align 4
  %7 = alloca [3 x i32], align 4
  %8 = icmp sgt i32 %4, 0
  br i1 %8, label %.lr.ph, label %._crit_edge

.lr.ph:                                           ; preds = %5
  %.ptr59 = getelementptr inbounds i8, ptr %6, i64 4
  %9 = getelementptr inbounds i8, ptr %6, i64 8
  %.ptr64 = getelementptr inbounds i8, ptr %7, i64 4
  %10 = getelementptr inbounds i8, ptr %7, i64 8
  %wide.trip.count = zext nneg i32 %4 to i64
  br label %11

11:                                               ; preds = %.lr.ph, %_ZSt3maxIiET_St16initializer_listIS0_E.exit
  %indvars.iv = phi i64 [ 0, %.lr.ph ], [ %indvars.iv.next, %_ZSt3maxIiET_St16initializer_listIS0_E.exit ]
  %12 = mul nuw nsw i64 %indvars.iv, 3
  %13 = getelementptr inbounds i8, ptr %1, i64 %12
  %14 = load i8, ptr %13, align 1
  %15 = zext i8 %14 to i32
  %16 = add nuw nsw i64 %12, 1
  %17 = getelementptr inbounds i8, ptr %1, i64 %16
  %18 = load i8, ptr %17, align 1
  %19 = zext i8 %18 to i32
  %20 = add nuw nsw i64 %12, 2
  %21 = getelementptr inbounds i8, ptr %1, i64 %20
  %22 = load i8, ptr %21, align 1
  %23 = zext i8 %22 to i32
  store i32 %15, ptr %6, align 4
  store i32 %19, ptr %.ptr59, align 4
  store i32 %23, ptr %9, align 4
  br label %.lr.ph.i.i

.lr.ph.i.i:                                       ; preds = %.lr.ph.i.i, %11
  %24 = phi i32 [ %27, %.lr.ph.i.i ], [ %15, %11 ]
  %.idx = phi i64 [ %.add, %.lr.ph.i.i ], [ 4, %11 ]
  %.018.i.i = phi ptr [ %spec.select.i.i, %.lr.ph.i.i ], [ %6, %11 ]
  %.ptr = getelementptr inbounds i8, ptr %6, i64 %.idx
  %25 = load i32, ptr %.ptr, align 4
  %26 = icmp slt i32 %25, %24
  %27 = tail call i32 @llvm.smin.i32(i32 %25, i32 %24)
  %spec.select.i.i = select i1 %26, ptr %.ptr, ptr %.018.i.i
  %.add = add nuw nsw i64 %.idx, 4
  %.not.i.i = icmp eq i64 %.add, 12
  br i1 %.not.i.i, label %_ZSt3minIiET_St16initializer_listIS0_E.exit, label %.lr.ph.i.i, !llvm.loop !6

_ZSt3minIiET_St16initializer_listIS0_E.exit:      ; preds = %.lr.ph.i.i
  %28 = load i32, ptr %spec.select.i.i, align 4
  store i32 %15, ptr %7, align 4
  store i32 %19, ptr %.ptr64, align 4
  store i32 %23, ptr %10, align 4
  br label %.lr.ph.i.i54

.lr.ph.i.i54:                                     ; preds = %.lr.ph.i.i54, %_ZSt3minIiET_St16initializer_listIS0_E.exit
  %29 = phi i32 [ %32, %.lr.ph.i.i54 ], [ %15, %_ZSt3minIiET_St16initializer_listIS0_E.exit ]
  %.idx60 = phi i64 [ %.add61, %.lr.ph.i.i54 ], [ 4, %_ZSt3minIiET_St16initializer_listIS0_E.exit ]
  %.018.i.i55 = phi ptr [ %spec.select.i.i56, %.lr.ph.i.i54 ], [ %7, %_ZSt3minIiET_St16initializer_listIS0_E.exit ]
  %.ptr62 = getelementptr inbounds i8, ptr %7, i64 %.idx60
  %30 = load i32, ptr %.ptr62, align 4
  %31 = icmp slt i32 %29, %30
  %32 = tail call i32 @llvm.smax.i32(i32 %29, i32 %30)
  %spec.select.i.i56 = select i1 %31, ptr %.ptr62, ptr %.018.i.i55
  %.add61 = add nuw nsw i64 %.idx60, 4
  %.not.i.i57 = icmp eq i64 %.add61, 12
  br i1 %.not.i.i57, label %_ZSt3maxIiET_St16initializer_listIS0_E.exit, label %.lr.ph.i.i54, !llvm.loop !7

_ZSt3maxIiET_St16initializer_listIS0_E.exit:      ; preds = %.lr.ph.i.i54
  %33 = load i32, ptr %spec.select.i.i56, align 4
  %34 = sub nsw i32 %33, %28
  %35 = tail call i32 @llvm.smax.i32(i32 %34, i32 0)
  %36 = tail call i32 @llvm.umin.i32(i32 %35, i32 255)
  %37 = zext nneg i32 %36 to i64
  %.not52 = icmp eq i32 %33, %15
  %.not = icmp eq i32 %33, %19
  %38 = sext i32 %33 to i64
  %39 = getelementptr inbounds i32, ptr %2, i64 %38
  %40 = load i32, ptr %39, align 4
  %41 = mul nsw i32 %36, %40
  %42 = add nsw i32 %41, 2048
  %43 = lshr i32 %42, 12
  %44 = sub nsw i32 %19, %23
  %45 = sub nsw i32 %23, %15
  %46 = shl nuw nsw i32 %36, 1
  %47 = add nsw i32 %45, %46
  %48 = sub nsw i32 %15, %19
  %49 = shl nuw nsw i32 %36, 2
  %50 = add nsw i32 %48, %49
  %51 = select i1 %.not, i32 %47, i32 %50
  %52 = select i1 %.not52, i32 %44, i32 %51
  %53 = getelementptr inbounds i32, ptr %3, i64 %37
  %54 = load i32, ptr %53, align 4
  %55 = mul nsw i32 %52, %54
  %56 = add nsw i32 %55, 2048
  %57 = ashr i32 %56, 12
  %58 = icmp slt i32 %57, 0
  %59 = select i1 %58, i32 180, i32 0
  %60 = add nsw i32 %59, %57
  %61 = tail call i32 @llvm.smax.i32(i32 %60, i32 0)
  %62 = tail call i32 @llvm.umin.i32(i32 %61, i32 255)
  %63 = trunc nuw i32 %62 to i8
  %64 = getelementptr inbounds i8, ptr %0, i64 %12
  store i8 %63, ptr %64, align 1
  %65 = trunc i32 %43 to i8
  %66 = getelementptr inbounds i8, ptr %0, i64 %16
  store i8 %65, ptr %66, align 1
  %67 = trunc i32 %33 to i8
  %68 = getelementptr inbounds i8, ptr %0, i64 %20
  store i8 %67, ptr %68, align 1
  %indvars.iv.next = add nuw nsw i64 %indvars.iv, 1
  %exitcond.not = icmp eq i64 %indvars.iv.next, %wide.trip.count
  br i1 %exitcond.not, label %._crit_edge, label %11, !llvm.loop !8

._crit_edge:                                      ; preds = %_ZSt3maxIiET_St16initializer_listIS0_E.exit, %5
  ret void
}